; Function Attrs: mustprogress uwtable
define void @_ZN17DisplayFilterEdit23displayFilterExpressionEv(ptr noundef nonnull align 8 dereferenceable(352) %0) #2 align 2 personality ptr @__gxx_personality_v0 {
  %2 = alloca { i64, i64 }, align 8
  %3 = alloca { i64, i64 }, align 8
  %4 = alloca %"class.QMetaObject::Connection", align 8
  %5 = tail call noalias noundef nonnull dereferenceable(120) ptr @_Znwm(i64 noundef 120) #20
  invoke void @_ZN29DisplayFilterExpressionDialogC1EP7QWidget(ptr noundef nonnull align 8 dereferenceable(120) %5, ptr noundef nonnull %0)
          to label %6 unwind label %10

6:                                                ; preds = %1
  call void @llvm.lifetime.start.p0(i64 16, ptr nonnull %2)
  call void @llvm.lifetime.start.p0(i64 16, ptr nonnull %3)
  store i64 ptrtoint (ptr @_ZN29DisplayFilterExpressionDialog19insertDisplayFilterERK7QString to i64), ptr %2, align 8, !noalias !76
  %.fca.1.gep12.i = getelementptr inbounds i8, ptr %2, i64 8
  store i64 0, ptr %.fca.1.gep12.i, align 8, !noalias !76
  store i64 ptrtoint (ptr @_ZN14SyntaxLineEdit12insertFilterERK7QString to i64), ptr %3, align 8, !noalias !76
  %.fca.1.gep.i = getelementptr inbounds i8, ptr %3, i64 8
  store i64 0, ptr %.fca.1.gep.i, align 8, !noalias !76
  %7 = tail call noalias noundef nonnull dereferenceable(32) ptr @_Znwm(i64 noundef 32) #20, !noalias !76
  store i32 1, ptr %7, align 4, !noalias !76
  %8 = getelementptr inbounds i8, ptr %7, i64 8
  store ptr @_ZN9QtPrivate11QSlotObjectIM14SyntaxLineEditFvRK7QStringENS_4ListIJS4_EEEvE4implEiPNS_15QSlotObjectBaseEP7QObjectPPvPb, ptr %8, align 8, !noalias !76
  %9 = getelementptr inbounds i8, ptr %7, i64 16
  store i64 ptrtoint (ptr @_ZN14SyntaxLineEdit12insertFilterERK7QString to i64), ptr %9, align 8, !noalias !76
  %.repack7.i.i = getelementptr inbounds i8, ptr %7, i64 24
  store i64 0, ptr %.repack7.i.i, align 8, !noalias !76
  call void @_ZN7QObject11connectImplEPKS_PPvS1_S3_PN9QtPrivate15QSlotObjectBaseEN2Qt14ConnectionTypeEPKiPK11QMetaObject(ptr dead_on_unwind nonnull writable sret(%"class.QMetaObject::Connection") align 8 %4, ptr noundef nonnull %5, ptr noundef nonnull %2, ptr noundef nonnull %0, ptr noundef nonnull %3, ptr noundef nonnull %7, i32 noundef 0, ptr noundef null, ptr noundef nonnull @_ZN29DisplayFilterExpressionDialog16staticMetaObjectE)
  call void @llvm.lifetime.end.p0(i64 16, ptr nonnull %2)
  call void @llvm.lifetime.end.p0(i64 16, ptr nonnull %3)
  call void @_ZN11QMetaObject10ConnectionD1Ev(ptr noundef nonnull align 8 dereferenceable(8) %4) #19
  call void @_ZN7QWidget4showEv(ptr noundef nonnull align 8 dereferenceable(40) %5)
  ret void

10:                                               ; preds = %1
  %11 = landingpad { ptr, i32 }
          cleanup
  tail call void @_ZdlPv(ptr noundef nonnull %5) #21
  resume { ptr, i32 } %11
}